target datalayout = "e-m:e-p270:32:32-p271:32:32-p272:64:64-i64:64-i128:128-f80:128-n8:16:32:64-S128"
target triple = "x86_64-pc-linux-gnu"

@H5FD_CORE_id_g = global i64 -1, align 8
@H5FD_init_g = external global i8, align 1
@H5_libterm_g = external global i8, align 1
@.str.1 = private unnamed_addr constant [102 x i8] c"generated/home/dtcxzyw/WorkSpace/Projects/compilers/llvm-opt-benchmark/bench/hdf5/hdf5/src/H5FDcore.c\00", align 1
@__func__.H5FD__core_register = private unnamed_addr constant [20 x i8] c"H5FD__core_register\00", align 1
@H5E_VFL_g = external global i64, align 8
@H5E_CANTREGISTER_g = external global i64, align 8
@.str.2 = private unnamed_addr constant [31 x i8] c"unable to register core driver\00", align 1

; Function Attrs: nounwind uwtable
define i32 @H5FD__core_register() #0 {
  %1 = alloca i32, align 4
  %2 = alloca i8, align 1
  call void @llvm.lifetime.start.p0(i64 4, ptr %1) #12
  store i32 0, ptr %1, align 4, !tbaa !3
  call void @llvm.lifetime.start.p0(i64 1, ptr %2) #12
  store i8 0, ptr %2, align 1, !tbaa !7
  %3 = load i8, ptr @H5FD_init_g, align 1, !tbaa !7, !range !9, !noundef !10
  %4 = trunc i8 %3 to i1
  br i1 %4, label %9, label %5

5:                                                ; preds = %0
  %6 = load i8, ptr @H5_libterm_g, align 1, !tbaa !7, !range !9, !noundef !10
  %7 = trunc i8 %6 to i1
  %8 = xor i1 %7, true
  br label %9

9:                                                ; preds = %5, %0
  %10 = phi i1 [ true, %0 ], [ %8, %5 ]
  %11 = xor i1 %10, true
  %12 = xor i1 %11, true
  %13 = zext i1 %12 to i32
  %14 = sext i32 %13 to i64
  %15 = call i64 @llvm.expect.i64(i64 %14, i64 1)
  %16 = icmp ne i64 %15, 0
  br i1 %16, label %17, label %46

17:                                               ; preds = %9
  %18 = load i64, ptr @H5FD_CORE_id_g, align 8, !tbaa !11
  %19 = call i32 @H5I_get_type(i64 noundef %18)
  %20 = icmp ne i32 8, %19
  br i1 %20, label %21, label %44

21:                                               ; preds = %17
  %22 = call i64 @H5FD_register(ptr noundef @H5FD_core_g, i64 noundef 336, i1 noundef zeroext false)
  store i64 %22, ptr @H5FD_CORE_id_g, align 8, !tbaa !11
  %23 = icmp slt i64 %22, 0
  br i1 %23, label %24, label %43

24:                                               ; preds = %21
  br label %25

25:                                               ; preds = %24
  br label %26

26:                                               ; preds = %25
  br label %27

27:                                               ; preds = %26
  %28 = load i64, ptr @H5E_VFL_g, align 8, !tbaa !11
  %29 = load i64, ptr @H5E_CANTREGISTER_g, align 8, !tbaa !11
  %30 = call i32 (ptr, ptr, i32, i64, i64, ptr, ...) @H5E_printf_stack(ptr noundef @.str.1, ptr noundef @__func__.H5FD__core_register, i32 noundef 460, i64 noundef %28, i64 noundef %29, ptr noundef @.str.2)
  br label %31

31:                                               ; preds = %27
  br label %32

32:                                               ; preds = %31
  store i8 1, ptr %2, align 1, !tbaa !7
  %33 = load i8, ptr %2, align 1, !tbaa !7, !range !9, !noundef !10
  %34 = trunc i8 %33 to i1
  %35 = zext i1 %34 to i8
  store i8 %35, ptr %2, align 1, !tbaa !7
  br label %36

36:                                               ; preds = %32
  br label %37

37:                                               ; preds = %36
  br label %38

38:                                               ; preds = %37
  store i32 -1, ptr %1, align 4, !tbaa !3
  br label %45

39:                                               ; No predecessors!
  br label %40

40:                                               ; preds = %39
  br label %41

41:                                               ; preds = %40
  br label %42

42:                                               ; preds = %41
  br label %43

43:                                               ; preds = %42, %21
  br label %44

44:                                               ; preds = %43, %17
  br label %45

45:                                               ; preds = %44, %38
  br label %46

46:                                               ; preds = %45, %9
  %47 = load i32, ptr %1, align 4, !tbaa !3
  call void @llvm.lifetime.end.p0(i64 1, ptr %2) #12
  call void @llvm.lifetime.end.p0(i64 4, ptr %1) #12
  ret i32 %47
}