; Function Attrs: nounwind uwtable
define range(i32 -1, 1) i32 @H5FD__core_register() local_unnamed_addr #0 {
  %1 = load i8, ptr @H5FD_init_g, align 1, !tbaa !3, !range !7, !noundef !8
  %2 = trunc nuw i8 %1 to i1
  %3 = load i8, ptr @H5_libterm_g, align 1, !range !7
  %4 = trunc nuw i8 %3 to i1
  %5 = xor i1 %4, true
  %6 = select i1 %2, i1 true, i1 %5
  br i1 %6, label %7, label %17, !prof !9

7:                                                ; preds = %0
  %8 = load i64, ptr @H5FD_CORE_id_g, align 8, !tbaa !10
  %9 = tail call i32 @H5I_get_type(i64 noundef %8) #18
  %.not = icmp eq i32 %9, 8
  br i1 %.not, label %17, label %10

10:                                               ; preds = %7
  %11 = tail call i64 @H5FD_register(ptr noundef nonnull @H5FD_core_g, i64 noundef 336, i1 noundef zeroext false) #18
  store i64 %11, ptr @H5FD_CORE_id_g, align 8, !tbaa !10
  %12 = icmp slt i64 %11, 0
  br i1 %12, label %13, label %17

13:                                               ; preds = %10
  %14 = load i64, ptr @H5E_VFL_g, align 8, !tbaa !10
  %15 = load i64, ptr @H5E_CANTREGISTER_g, align 8, !tbaa !10
  %16 = tail call i32 (ptr, ptr, i32, i64, i64, ptr, ...) @H5E_printf_stack(ptr noundef nonnull @.str.1, ptr noundef nonnull @__func__.H5FD__core_register, i32 noundef 460, i64 noundef %14, i64 noundef %15, ptr noundef nonnull @.str.2) #18
  br label %17

17:                                               ; preds = %13, %10, %7, %0
  %.0 = phi i32 [ -1, %13 ], [ 0, %10 ], [ 0, %7 ], [ 0, %0 ]
  ret i32 %.0
}